; Function Attrs: mustprogress nounwind uwtable
define dso_local void @_ZN4llvm19AArch64RegisterInfoC2ERKNS_6TripleE(ptr noundef nonnull align 8 dereferenceable(320) %0, ptr noundef nonnull align 8 dereferenceable(56) %1) unnamed_addr #2 align 2 {
  tail call void @_ZN4llvm22AArch64GenRegisterInfoC2Ejjjjj(ptr noundef nonnull align 8 dereferenceable(308) %0, i32 noundef 6, i32 poison, i32 poison, i32 noundef 0, i32 noundef 0)
  store ptr getelementptr inbounds inrange(-16, 648) (i8, ptr @_ZTVN4llvm19AArch64RegisterInfoE, i64 16), ptr %0, align 8
  %3 = getelementptr inbounds nuw i8, ptr %0, i64 312
  store ptr %1, ptr %3, align 8
  %4 = getelementptr inbounds i8, ptr %0, i64 8
  tail call void @_ZN4llvm10AArch64_MC22initLLVMToCVRegMappingEPNS_14MCRegisterInfoE(ptr noundef nonnull %4) #18
  ret void
}